target datalayout = "e-m:e-p270:32:32-p271:32:32-p272:64:64-i64:64-i128:128-f80:128-n8:16:32:64-S128"
target triple = "x86_64-pc-linux-gnu"

%class.NavMeshTesterTool = type { %struct.SampleTool, ptr, ptr, ptr, %class.dtQueryFilter, i32, i32, i32, i32, i32, [256 x i32], [256 x i32], i32, [768 x float], [256 x i8], [256 x i32], i32, [3 x float], [6144 x float], i32, [12 x float], [192 x float], i32, i8, [3 x float], [3 x float], [3 x float], [3 x float], i8, float, float, float, i8, i8, i32, [256 x i32], i32, [3 x float], [3 x float], [3 x float], [3 x float], [30 x float], i32 }
%struct.SampleTool = type { ptr }
%class.dtQueryFilter = type { [64 x float], i16, i16 }

; Function Attrs: mustprogress nounwind uwtable
define linkonce_odr dso_local void @_Z7dtVcopyPfPKf(ptr noundef %0, ptr noundef %1) #1 comdat {
  %3 = alloca ptr, align 8
  %4 = alloca ptr, align 8
  store ptr %0, ptr %3, align 8
  store ptr %1, ptr %4, align 8
  %5 = load ptr, ptr %4, align 8
  %6 = getelementptr inbounds float, ptr %5, i64 0
  %7 = load float, ptr %6, align 4
  %8 = load ptr, ptr %3, align 8
  %9 = getelementptr inbounds float, ptr %8, i64 0
  store float %7, ptr %9, align 4
  %10 = load ptr, ptr %4, align 8
  %11 = getelementptr inbounds float, ptr %10, i64 1
  %12 = load float, ptr %11, align 4
  %13 = load ptr, ptr %3, align 8
  %14 = getelementptr inbounds float, ptr %13, i64 1
  store float %12, ptr %14, align 4
  %15 = load ptr, ptr %4, align 8
  %16 = getelementptr inbounds float, ptr %15, i64 2
  %17 = load float, ptr %16, align 4
  %18 = load ptr, ptr %3, align 8
  %19 = getelementptr inbounds float, ptr %18, i64 2
  store float %17, ptr %19, align 4
  ret void
}

; Function Attrs: mustprogress nounwind uwtable
define linkonce_odr dso_local noundef zeroext i1 @_Z15dtStatusSucceedj(i32 noundef %0) #1 comdat {
  %2 = alloca i32, align 4
  store i32 %0, ptr %2, align 4
  %3 = load i32, ptr %2, align 4
  %4 = and i32 %3, 1073741824
  %5 = icmp ne i32 %4, 0
  ret i1 %5
}

; Function Attrs: mustprogress nounwind uwtable
define linkonce_odr dso_local noundef zeroext i1 @_Z18dtStatusInProgressj(i32 noundef %0) #1 comdat {
  %2 = alloca i32, align 4
  store i32 %0, ptr %2, align 4
  %3 = load i32, ptr %2, align 4
  %4 = and i32 %3, 536870912
  %5 = icmp ne i32 %4, 0
  ret i1 %5
}

; Function Attrs: mustprogress uwtable
define dso_local void @_ZN17NavMeshTesterTool12handleUpdateEf(ptr noundef nonnull align 8 dereferenceable(33408) %0, float noundef %1) unnamed_addr #0 align 2 {
  %3 = alloca ptr, align 8
  %4 = alloca float, align 4
  %5 = alloca [3 x float], align 4
  store ptr %0, ptr %3, align 8
  store float %1, ptr %4, align 4
  %6 = load ptr, ptr %3, align 8
  %7 = getelementptr inbounds %class.NavMeshTesterTool, ptr %6, i32 0, i32 6
  %8 = load i32, ptr %7, align 8
  %9 = icmp eq i32 %8, 2
  br i1 %9, label %10, label %83

10:                                               ; preds = %2
  %11 = getelementptr inbounds %class.NavMeshTesterTool, ptr %6, i32 0, i32 5
  %12 = load i32, ptr %11, align 4
  %13 = call noundef zeroext i1 @_Z18dtStatusInProgressj(i32 noundef %12)
  br i1 %13, label %14, label %19

14:                                               ; preds = %10
  %15 = getelementptr inbounds %class.NavMeshTesterTool, ptr %6, i32 0, i32 3
  %16 = load ptr, ptr %15, align 8
  %17 = call noundef i32 @_ZN14dtNavMeshQuery20updateSlicedFindPathEiPi(ptr noundef nonnull align 8 dereferenceable(104) %16, i32 noundef 1, ptr noundef null)
  %18 = getelementptr inbounds %class.NavMeshTesterTool, ptr %6, i32 0, i32 5
  store i32 %17, ptr %18, align 4
  br label %19

19:                                               ; preds = %14, %10
  %20 = getelementptr inbounds %class.NavMeshTesterTool, ptr %6, i32 0, i32 5
  %21 = load i32, ptr %20, align 4
  %22 = call noundef zeroext i1 @_Z15dtStatusSucceedj(i32 noundef %21)
  br i1 %22, label %23, label %82

23:                                               ; preds = %19
  %24 = getelementptr inbounds %class.NavMeshTesterTool, ptr %6, i32 0, i32 3
  %25 = load ptr, ptr %24, align 8
  %26 = getelementptr inbounds %class.NavMeshTesterTool, ptr %6, i32 0, i32 10
  %27 = getelementptr inbounds [256 x i32], ptr %26, i64 0, i64 0
  %28 = getelementptr inbounds %class.NavMeshTesterTool, ptr %6, i32 0, i32 12
  %29 = call noundef i32 @_ZN14dtNavMeshQuery22finalizeSlicedFindPathEPjPii(ptr noundef nonnull align 8 dereferenceable(104) %25, ptr noundef %27, ptr noundef %28, i32 noundef 256)
  %30 = getelementptr inbounds %class.NavMeshTesterTool, ptr %6, i32 0, i32 16
  store i32 0, ptr %30, align 4
  %31 = getelementptr inbounds %class.NavMeshTesterTool, ptr %6, i32 0, i32 12
  %32 = load i32, ptr %31, align 8
  %33 = icmp ne i32 %32, 0
  br i1 %33, label %34, label %80

34:                                               ; preds = %23
  %35 = getelementptr inbounds [3 x float], ptr %5, i64 0, i64 0
  %36 = getelementptr inbounds %class.NavMeshTesterTool, ptr %6, i32 0, i32 25
  %37 = getelementptr inbounds [3 x float], ptr %36, i64 0, i64 0
  call void @_Z7dtVcopyPfPKf(ptr noundef %35, ptr noundef %37)
  %38 = getelementptr inbounds %class.NavMeshTesterTool, ptr %6, i32 0, i32 10
  %39 = getelementptr inbounds %class.NavMeshTesterTool, ptr %6, i32 0, i32 12
  %40 = load i32, ptr %39, align 8
  %41 = sub nsw i32 %40, 1
  %42 = sext i32 %41 to i64
  %43 = getelementptr inbounds [256 x i32], ptr %38, i64 0, i64 %42
  %44 = load i32, ptr %43, align 4
  %45 = getelementptr inbounds %class.NavMeshTesterTool, ptr %6, i32 0, i32 9
  %46 = load i32, ptr %45, align 4
  %47 = icmp ne i32 %44, %46
  br i1 %47, label %48, label %62

48:                                               ; preds = %34
  %49 = getelementptr inbounds %class.NavMeshTesterTool, ptr %6, i32 0, i32 3
  %50 = load ptr, ptr %49, align 8
  %51 = getelementptr inbounds %class.NavMeshTesterTool, ptr %6, i32 0, i32 10
  %52 = getelementptr inbounds %class.NavMeshTesterTool, ptr %6, i32 0, i32 12
  %53 = load i32, ptr %52, align 8
  %54 = sub nsw i32 %53, 1
  %55 = sext i32 %54 to i64
  %56 = getelementptr inbounds [256 x i32], ptr %51, i64 0, i64 %55
  %57 = load i32, ptr %56, align 4
  %58 = getelementptr inbounds %class.NavMeshTesterTool, ptr %6, i32 0, i32 25
  %59 = getelementptr inbounds [3 x float], ptr %58, i64 0, i64 0
  %60 = getelementptr inbounds [3 x float], ptr %5, i64 0, i64 0
  %61 = call noundef i32 @_ZNK14dtNavMeshQuery18closestPointOnPolyEjPKfPfPb(ptr noundef nonnull align 8 dereferenceable(104) %50, i32 noundef %57, ptr noundef %59, ptr noundef %60, ptr noundef null)
  br label %62

62:                                               ; preds = %48, %34
  %63 = getelementptr inbounds %class.NavMeshTesterTool, ptr %6, i32 0, i32 3
  %64 = load ptr, ptr %63, align 8
  %65 = getelementptr inbounds %class.NavMeshTesterTool, ptr %6, i32 0, i32 24
  %66 = getelementptr inbounds [3 x float], ptr %65, i64 0, i64 0
  %67 = getelementptr inbounds [3 x float], ptr %5, i64 0, i64 0
  %68 = getelementptr inbounds %class.NavMeshTesterTool, ptr %6, i32 0, i32 10
  %69 = getelementptr inbounds [256 x i32], ptr %68, i64 0, i64 0
  %70 = getelementptr inbounds %class.NavMeshTesterTool, ptr %6, i32 0, i32 12
  %71 = load i32, ptr %70, align 8
  %72 = getelementptr inbounds %class.NavMeshTesterTool, ptr %6, i32 0, i32 13
  %73 = getelementptr inbounds [768 x float], ptr %72, i64 0, i64 0
  %74 = getelementptr inbounds %class.NavMeshTesterTool, ptr %6, i32 0, i32 14
  %75 = getelementptr inbounds [256 x i8], ptr %74, i64 0, i64 0
  %76 = getelementptr inbounds %class.NavMeshTesterTool, ptr %6, i32 0, i32 15
  %77 = getelementptr inbounds [256 x i32], ptr %76, i64 0, i64 0
  %78 = getelementptr inbounds %class.NavMeshTesterTool, ptr %6, i32 0, i32 16
  %79 = call noundef i32 @_ZNK14dtNavMeshQuery16findStraightPathEPKfS1_PKjiPfPhPjPiii(ptr noundef nonnull align 8 dereferenceable(104) %64, ptr noundef %66, ptr noundef %67, ptr noundef %69, i32 noundef %71, ptr noundef %73, ptr noundef %75, ptr noundef %77, ptr noundef %78, i32 noundef 256, i32 noundef 2)
  br label %80

80:                                               ; preds = %62, %23
  %81 = getelementptr inbounds %class.NavMeshTesterTool, ptr %6, i32 0, i32 5
  store i32 -2147483648, ptr %81, align 4
  br label %82

82:                                               ; preds = %80, %19
  br label %83

83:                                               ; preds = %82, %2
  ret void
}