; Function Attrs: mustprogress uwtable
define dso_local void @_ZN17NavMeshTesterTool12handleUpdateEf(ptr noundef nonnull align 8 dereferenceable(33408) %0, float %1) unnamed_addr #0 align 2 {
  %3 = alloca [3 x float], align 8
  %4 = getelementptr inbounds i8, ptr %0, i64 296
  %5 = load i32, ptr %4, align 8
  %6 = icmp eq i32 %5, 2
  br i1 %6, label %7, label %50

7:                                                ; preds = %2
  %8 = getelementptr inbounds i8, ptr %0, i64 292
  %9 = load i32, ptr %8, align 4
  %10 = and i32 %9, 536870912
  %.not2 = icmp eq i32 %10, 0
  br i1 %.not2, label %15, label %11

11:                                               ; preds = %7
  %12 = getelementptr inbounds i8, ptr %0, i64 24
  %13 = load ptr, ptr %12, align 8
  %14 = tail call noundef i32 @_ZN14dtNavMeshQuery20updateSlicedFindPathEiPi(ptr noundef nonnull align 8 dereferenceable(104) %13, i32 noundef 1, ptr noundef null)
  store i32 %14, ptr %8, align 4
  br label %15

15:                                               ; preds = %11, %7
  %16 = phi i32 [ %14, %11 ], [ %9, %7 ]
  %17 = and i32 %16, 1073741824
  %.not3 = icmp eq i32 %17, 0
  br i1 %.not3, label %50, label %18

18:                                               ; preds = %15
  %19 = getelementptr inbounds i8, ptr %0, i64 24
  %20 = load ptr, ptr %19, align 8
  %21 = getelementptr inbounds i8, ptr %0, i64 312
  %22 = getelementptr inbounds i8, ptr %0, i64 2360
  %23 = tail call noundef i32 @_ZN14dtNavMeshQuery22finalizeSlicedFindPathEPjPii(ptr noundef nonnull align 8 dereferenceable(104) %20, ptr noundef nonnull %21, ptr noundef nonnull %22, i32 noundef 256)
  %24 = getelementptr inbounds i8, ptr %0, i64 6716
  store i32 0, ptr %24, align 4
  %25 = load i32, ptr %22, align 8
  %.not = icmp eq i32 %25, 0
  br i1 %.not, label %49, label %26

26:                                               ; preds = %18
  %27 = getelementptr inbounds i8, ptr %0, i64 32148
  %28 = load <2 x float>, ptr %27, align 4
  store <2 x float> %28, ptr %3, align 8
  %29 = getelementptr inbounds i8, ptr %0, i64 32156
  %30 = load float, ptr %29, align 4
  %31 = getelementptr inbounds i8, ptr %3, i64 8
  store float %30, ptr %31, align 8
  %32 = add nsw i32 %25, -1
  %33 = sext i32 %32 to i64
  %34 = getelementptr inbounds [256 x i32], ptr %21, i64 0, i64 %33
  %35 = load i32, ptr %34, align 4
  %36 = getelementptr inbounds i8, ptr %0, i64 308
  %37 = load i32, ptr %36, align 4
  %.not1 = icmp eq i32 %35, %37
  br i1 %.not1, label %41, label %38

38:                                               ; preds = %26
  %39 = load ptr, ptr %19, align 8
  %40 = call noundef i32 @_ZNK14dtNavMeshQuery18closestPointOnPolyEjPKfPfPb(ptr noundef nonnull align 8 dereferenceable(104) %39, i32 noundef %35, ptr noundef nonnull %27, ptr noundef nonnull %3, ptr noundef null)
  %.pre = load i32, ptr %22, align 8
  br label %41

41:                                               ; preds = %38, %26
  %42 = phi i32 [ %.pre, %38 ], [ %25, %26 ]
  %43 = load ptr, ptr %19, align 8
  %44 = getelementptr inbounds i8, ptr %0, i64 32136
  %45 = getelementptr inbounds i8, ptr %0, i64 2364
  %46 = getelementptr inbounds i8, ptr %0, i64 5436
  %47 = getelementptr inbounds i8, ptr %0, i64 5692
  %48 = call noundef i32 @_ZNK14dtNavMeshQuery16findStraightPathEPKfS1_PKjiPfPhPjPiii(ptr noundef nonnull align 8 dereferenceable(104) %43, ptr noundef nonnull %44, ptr noundef nonnull %3, ptr noundef nonnull %21, i32 noundef %42, ptr noundef nonnull %45, ptr noundef nonnull %46, ptr noundef nonnull %47, ptr noundef nonnull %24, i32 noundef 256, i32 noundef 2)
  br label %49

49:                                               ; preds = %41, %18
  store i32 -2147483648, ptr %8, align 4
  br label %50

50:                                               ; preds = %15, %49, %2
  ret void
}